; Function Attrs: mustprogress nofree norecurse nosync nounwind willreturn memory(argmem: read) uwtable
define hidden noundef range(i32 0, 3) i32 @_ZN3p2t8Orient2dERKNS_5PointES2_S2_(ptr noundef nonnull readonly align 8 captures(none) dereferenceable(40) %0, ptr noundef nonnull readonly align 8 captures(none) dereferenceable(40) %1, ptr noundef nonnull readonly align 8 captures(none) dereferenceable(40) %2) local_unnamed_addr #0 {
  %4 = load double, ptr %0, align 8
  %5 = load double, ptr %2, align 8
  %6 = fsub double %4, %5
  %7 = getelementptr inbounds nuw i8, ptr %1, i64 8
  %8 = load double, ptr %7, align 8
  %9 = getelementptr inbounds nuw i8, ptr %2, i64 8
  %10 = load double, ptr %9, align 8
  %11 = fsub double %8, %10
  %12 = fmul double %6, %11
  %13 = getelementptr inbounds nuw i8, ptr %0, i64 8
  %14 = load double, ptr %13, align 8
  %15 = fsub double %14, %10
  %16 = load double, ptr %1, align 8
  %17 = fsub double %16, %5
  %18 = fmul double %15, %17
  %19 = fsub double %12, %18
  %20 = fcmp oeq double %19, 0.000000e+00
  %21 = fcmp ogt double %19, 0.000000e+00
  %.12 = zext i1 %21 to i32
  %22 = select i1 %20, i32 2, i32 %.12
  ret i32 %22
}